target datalayout = "e-m:e-p270:32:32-p271:32:32-p272:64:64-i64:64-i128:128-f80:128-n8:16:32:64-S128"
target triple = "x86_64-pc-linux-gnu"

%struct.lua_State = type { %struct.GCRef, i8, i8, i8, i8, %struct.MRef, %struct.GCRef, ptr, ptr, %struct.MRef, %struct.MRef, %struct.GCRef, %struct.GCRef, ptr, i32 }
%struct.MRef = type { i64 }
%struct.GCRef = type { i64 }
%union.TValue = type { i64 }
%struct.SBufExt = type { ptr, ptr, ptr, %struct.MRef, %union.anon.2, ptr, %struct.GCRef, %struct.GCRef, i32 }
%union.anon.2 = type { %struct.GCRef }
%struct.GCstr = type { %struct.GCRef, i8, i8, i8, i8, i32, i32, i32 }
%struct.GCudata = type { %struct.GCRef, i8, i8, i8, i8, %struct.GCRef, i32, %struct.GCRef, i32 }
%struct.global_State = type { ptr, ptr, %struct.GCState, %struct.GCstr, i8, i8, i8, i8, %struct.StrInternState, i32, %struct.GCRef, %struct.SBuf, %union.TValue, %union.TValue, %struct.Node, %union.TValue, %struct.GCupval, i32, i32, ptr, ptr, ptr, i32, i32, %struct.GCRef, %struct.MRef, %struct.MRef, %struct.PRNGState, [39 x %struct.GCRef] }
%struct.GCState = type { i64, i64, i8, i8, i8, i8, i32, %struct.GCRef, %struct.MRef, %struct.GCRef, %struct.GCRef, %struct.GCRef, %struct.GCRef, i64, i64, i32, i32, %struct.MRef }
%struct.StrInternState = type { ptr, i32, i32, i32, i8, i8, i8, i8, i64 }
%struct.SBuf = type { ptr, ptr, ptr, %struct.MRef }
%struct.Node = type { %union.TValue, %union.TValue, %struct.MRef }
%struct.GCupval = type { %struct.GCRef, i8, i8, i8, i8, %union.anon, %struct.MRef, i32 }
%union.anon = type { %struct.anon.1 }
%struct.anon.1 = type { %struct.GCRef, %struct.GCRef }
%struct.PRNGState = type { [4 x i64] }
%struct.GCcdata = type { %struct.GCRef, i8, i8, i16 }

@.str.2 = private unnamed_addr constant [7 x i8] c"buffer\00", align 1
@.str.5 = private unnamed_addr constant [24 x i8] c"store to dead GC object\00", align 1

; Function Attrs: alwaysinline nounwind uwtable
define internal void @checklivetv(ptr noundef %0, ptr noundef %1, ptr noundef %2) #3 {
  %4 = alloca ptr, align 8
  %5 = alloca ptr, align 8
  %6 = alloca ptr, align 8
  store ptr %0, ptr %4, align 8, !tbaa !4
  store ptr %1, ptr %5, align 8, !tbaa !38
  store ptr %2, ptr %6, align 8, !tbaa !31
  ret void
}

; Function Attrs: alwaysinline nounwind uwtable
define internal void @setgcVraw(ptr noundef %0, ptr noundef %1, i32 noundef %2) #3 {
  %4 = alloca ptr, align 8
  %5 = alloca ptr, align 8
  %6 = alloca i32, align 4
  store ptr %0, ptr %4, align 8, !tbaa !38
  store ptr %1, ptr %5, align 8, !tbaa !34
  store i32 %2, ptr %6, align 4, !tbaa !19
  %7 = load ptr, ptr %5, align 8, !tbaa !34
  %8 = ptrtoint ptr %7 to i64
  %9 = load i32, ptr %6, align 4, !tbaa !19
  %10 = zext i32 %9 to i64
  %11 = shl i64 %10, 47
  %12 = or i64 %8, %11
  %13 = load ptr, ptr %4, align 8, !tbaa !38
  %14 = getelementptr inbounds nuw %struct.GCRef, ptr %13, i32 0, i32 0
  store i64 %12, ptr %14, align 8, !tbaa !26
  ret void
}

; Function Attrs: alwaysinline nounwind uwtable
define internal void @setgcV(ptr noundef %0, ptr noundef %1, ptr noundef %2, i32 noundef %3) #3 {
  %5 = alloca ptr, align 8
  %6 = alloca ptr, align 8
  %7 = alloca ptr, align 8
  %8 = alloca i32, align 4
  store ptr %0, ptr %5, align 8, !tbaa !4
  store ptr %1, ptr %6, align 8, !tbaa !38
  store ptr %2, ptr %7, align 8, !tbaa !34
  store i32 %3, ptr %8, align 4, !tbaa !19
  %9 = load ptr, ptr %6, align 8, !tbaa !38
  %10 = load ptr, ptr %7, align 8, !tbaa !34
  %11 = load i32, ptr %8, align 4, !tbaa !19
  call void @setgcVraw(ptr noundef %9, ptr noundef %10, i32 noundef %11)
  %12 = load ptr, ptr %5, align 8, !tbaa !4
  %13 = load ptr, ptr %6, align 8, !tbaa !38
  call void @checklivetv(ptr noundef %12, ptr noundef %13, ptr noundef @.str.5)
  ret void
}

; Function Attrs: alwaysinline nounwind uwtable
define internal void @setintV(ptr noundef %0, i32 noundef %1) #3 {
  %3 = alloca ptr, align 8
  %4 = alloca i32, align 4
  store ptr %0, ptr %3, align 8, !tbaa !38
  store i32 %1, ptr %4, align 4, !tbaa !19
  %5 = load i32, ptr %4, align 4, !tbaa !19
  %6 = sitofp i32 %5 to double
  %7 = load ptr, ptr %3, align 8, !tbaa !38
  store double %6, ptr %7, align 8, !tbaa !26
  ret void
}

; Function Attrs: alwaysinline nounwind uwtable
define internal void @setcdataV(ptr noundef %0, ptr noundef %1, ptr noundef %2) #3 {
  %4 = alloca ptr, align 8
  %5 = alloca ptr, align 8
  %6 = alloca ptr, align 8
  store ptr %0, ptr %4, align 8, !tbaa !4
  store ptr %1, ptr %5, align 8, !tbaa !38
  store ptr %2, ptr %6, align 8, !tbaa !54
  %7 = load ptr, ptr %4, align 8, !tbaa !4
  %8 = load ptr, ptr %5, align 8, !tbaa !38
  %9 = load ptr, ptr %6, align 8, !tbaa !54
  call void @setgcV(ptr noundef %7, ptr noundef %8, ptr noundef %9, i32 noundef -11)
  ret void
}

; Function Attrs: alwaysinline nounwind uwtable
define internal ptr @lj_cdata_new_(ptr noundef %0, i32 noundef %1, i32 noundef %2) #3 {
  %4 = alloca ptr, align 8
  %5 = alloca i32, align 4
  %6 = alloca i32, align 4
  %7 = alloca ptr, align 8
  store ptr %0, ptr %4, align 8, !tbaa !4
  store i32 %1, ptr %5, align 4, !tbaa !19
  store i32 %2, ptr %6, align 4, !tbaa !19
  call void @llvm.lifetime.start.p0(i64 8, ptr %7) #8
  %8 = load ptr, ptr %4, align 8, !tbaa !4
  %9 = load i32, ptr %6, align 4, !tbaa !19
  %10 = zext i32 %9 to i64
  %11 = add i64 16, %10
  %12 = call ptr @lj_mem_newgco(ptr noundef %8, i64 noundef %11)
  store ptr %12, ptr %7, align 8, !tbaa !54
  %13 = load ptr, ptr %7, align 8, !tbaa !54
  %14 = getelementptr inbounds nuw %struct.GCcdata, ptr %13, i32 0, i32 2
  store i8 10, ptr %14, align 1, !tbaa !75
  %15 = load i32, ptr %5, align 4, !tbaa !19
  %16 = trunc i32 %15 to i16
  %17 = load ptr, ptr %7, align 8, !tbaa !54
  %18 = getelementptr inbounds nuw %struct.GCcdata, ptr %17, i32 0, i32 3
  store i16 %16, ptr %18, align 2, !tbaa !78
  %19 = load ptr, ptr %7, align 8, !tbaa !54
  call void @llvm.lifetime.end.p0(i64 8, ptr %7) #8
  ret ptr %19
}

; Function Attrs: nounwind uwtable
define internal ptr @buffer_tobuf(ptr noundef %0) #0 {
  %2 = alloca ptr, align 8
  store ptr %0, ptr %2, align 8, !tbaa !4
  %3 = load ptr, ptr %2, align 8, !tbaa !4
  %4 = getelementptr inbounds nuw %struct.lua_State, ptr %3, i32 0, i32 7
  %5 = load ptr, ptr %4, align 8, !tbaa !11
  %6 = load ptr, ptr %2, align 8, !tbaa !4
  %7 = getelementptr inbounds nuw %struct.lua_State, ptr %6, i32 0, i32 8
  %8 = load ptr, ptr %7, align 8, !tbaa !18
  %9 = icmp ult ptr %5, %8
  br i1 %9, label %10, label %30

10:                                               ; preds = %1
  %11 = load ptr, ptr %2, align 8, !tbaa !4
  %12 = getelementptr inbounds nuw %struct.lua_State, ptr %11, i32 0, i32 7
  %13 = load ptr, ptr %12, align 8, !tbaa !11
  %14 = load i64, ptr %13, align 8, !tbaa !26
  %15 = ashr i64 %14, 47
  %16 = trunc i64 %15 to i32
  %17 = icmp eq i32 %16, -13
  br i1 %17, label %18, label %30

18:                                               ; preds = %10
  %19 = load ptr, ptr %2, align 8, !tbaa !4
  %20 = getelementptr inbounds nuw %struct.lua_State, ptr %19, i32 0, i32 7
  %21 = load ptr, ptr %20, align 8, !tbaa !11
  %22 = getelementptr inbounds nuw %struct.GCRef, ptr %21, i32 0, i32 0
  %23 = load i64, ptr %22, align 8, !tbaa !26
  %24 = and i64 %23, 140737488355327
  %25 = inttoptr i64 %24 to ptr
  %26 = getelementptr inbounds nuw %struct.GCudata, ptr %25, i32 0, i32 3
  %27 = load i8, ptr %26, align 2, !tbaa !26
  %28 = zext i8 %27 to i32
  %29 = icmp eq i32 %28, 3
  br i1 %29, label %32, label %30

30:                                               ; preds = %18, %10, %1
  %31 = load ptr, ptr %2, align 8, !tbaa !4
  call void @lj_err_argtype(ptr noundef %31, i32 noundef 1, ptr noundef @.str.2) #9
  unreachable

32:                                               ; preds = %18
  %33 = load ptr, ptr %2, align 8, !tbaa !4
  %34 = getelementptr inbounds nuw %struct.lua_State, ptr %33, i32 0, i32 7
  %35 = load ptr, ptr %34, align 8, !tbaa !11
  %36 = getelementptr inbounds nuw %struct.GCRef, ptr %35, i32 0, i32 0
  %37 = load i64, ptr %36, align 8, !tbaa !26
  %38 = and i64 %37, 140737488355327
  %39 = inttoptr i64 %38 to ptr
  %40 = getelementptr inbounds %struct.GCudata, ptr %39, i64 1
  ret ptr %40
}

; Function Attrs: nounwind uwtable
define internal i32 @lj_cf_buffer_method_ref(ptr noundef %0) #0 {
  %2 = alloca ptr, align 8
  %3 = alloca ptr, align 8
  %4 = alloca ptr, align 8
  %5 = alloca i64, align 8
  store ptr %0, ptr %2, align 8, !tbaa !4
  call void @llvm.lifetime.start.p0(i64 8, ptr %3) #8
  %6 = load ptr, ptr %2, align 8, !tbaa !4
  %7 = call ptr @buffer_tobuf(ptr noundef %6)
  store ptr %7, ptr %3, align 8, !tbaa !9
  call void @llvm.lifetime.start.p0(i64 8, ptr %4) #8
  br label %8

8:                                                ; preds = %1
  %9 = load ptr, ptr %2, align 8, !tbaa !4
  %10 = getelementptr inbounds nuw %struct.lua_State, ptr %9, i32 0, i32 5
  %11 = getelementptr inbounds nuw %struct.MRef, ptr %10, i32 0, i32 0
  %12 = load i64, ptr %11, align 8, !tbaa !36
  %13 = inttoptr i64 %12 to ptr
  %14 = getelementptr inbounds nuw %struct.global_State, ptr %13, i32 0, i32 26
  %15 = getelementptr inbounds nuw %struct.MRef, ptr %14, i32 0, i32 0
  %16 = load i64, ptr %15, align 8, !tbaa !52
  %17 = inttoptr i64 %16 to ptr
  %18 = icmp ne ptr %17, null
  br i1 %18, label %42, label %19

19:                                               ; preds = %8
  call void @llvm.lifetime.start.p0(i64 8, ptr %5) #8
  %20 = load ptr, ptr %2, align 8, !tbaa !4
  %21 = getelementptr inbounds nuw %struct.lua_State, ptr %20, i32 0, i32 8
  %22 = load ptr, ptr %21, align 8, !tbaa !18
  %23 = load ptr, ptr %2, align 8, !tbaa !4
  %24 = getelementptr inbounds nuw %struct.lua_State, ptr %23, i32 0, i32 10
  %25 = getelementptr inbounds nuw %struct.MRef, ptr %24, i32 0, i32 0
  %26 = load i64, ptr %25, align 8, !tbaa !53
  %27 = inttoptr i64 %26 to ptr
  %28 = ptrtoint ptr %22 to i64
  %29 = ptrtoint ptr %27 to i64
  %30 = sub i64 %28, %29
  store i64 %30, ptr %5, align 8, !tbaa !37
  %31 = load ptr, ptr %2, align 8, !tbaa !4
  %32 = call i32 @luaopen_ffi(ptr noundef %31)
  %33 = load ptr, ptr %2, align 8, !tbaa !4
  %34 = getelementptr inbounds nuw %struct.lua_State, ptr %33, i32 0, i32 10
  %35 = getelementptr inbounds nuw %struct.MRef, ptr %34, i32 0, i32 0
  %36 = load i64, ptr %35, align 8, !tbaa !53
  %37 = inttoptr i64 %36 to ptr
  %38 = load i64, ptr %5, align 8, !tbaa !37
  %39 = getelementptr inbounds i8, ptr %37, i64 %38
  %40 = load ptr, ptr %2, align 8, !tbaa !4
  %41 = getelementptr inbounds nuw %struct.lua_State, ptr %40, i32 0, i32 8
  store ptr %39, ptr %41, align 8, !tbaa !18
  call void @llvm.lifetime.end.p0(i64 8, ptr %5) #8
  br label %42

42:                                               ; preds = %19, %8
  br label %43

43:                                               ; preds = %42
  br label %44

44:                                               ; preds = %43
  %45 = load ptr, ptr %2, align 8, !tbaa !4
  %46 = call ptr @lj_cdata_new_(ptr noundef %45, i32 noundef 20, i32 noundef 8)
  store ptr %46, ptr %4, align 8, !tbaa !54
  %47 = load ptr, ptr %3, align 8, !tbaa !9
  %48 = getelementptr inbounds nuw %struct.SBufExt, ptr %47, i32 0, i32 5
  %49 = load ptr, ptr %48, align 8, !tbaa !23
  %50 = load ptr, ptr %4, align 8, !tbaa !54
  %51 = getelementptr inbounds %struct.GCcdata, ptr %50, i64 1
  store ptr %49, ptr %51, align 8, !tbaa !56
  %52 = load ptr, ptr %2, align 8, !tbaa !4
  %53 = load ptr, ptr %2, align 8, !tbaa !4
  %54 = getelementptr inbounds nuw %struct.lua_State, ptr %53, i32 0, i32 8
  %55 = load ptr, ptr %54, align 8, !tbaa !18
  %56 = getelementptr inbounds nuw %union.TValue, ptr %55, i32 1
  store ptr %56, ptr %54, align 8, !tbaa !18
  %57 = load ptr, ptr %4, align 8, !tbaa !54
  call void @setcdataV(ptr noundef %52, ptr noundef %55, ptr noundef %57)
  %58 = load ptr, ptr %2, align 8, !tbaa !4
  %59 = getelementptr inbounds nuw %struct.lua_State, ptr %58, i32 0, i32 8
  %60 = load ptr, ptr %59, align 8, !tbaa !18
  %61 = getelementptr inbounds nuw %union.TValue, ptr %60, i32 1
  store ptr %61, ptr %59, align 8, !tbaa !18
  %62 = load ptr, ptr %3, align 8, !tbaa !9
  %63 = getelementptr inbounds nuw %struct.SBufExt, ptr %62, i32 0, i32 0
  %64 = load ptr, ptr %63, align 8, !tbaa !20
  %65 = load ptr, ptr %3, align 8, !tbaa !9
  %66 = getelementptr inbounds nuw %struct.SBufExt, ptr %65, i32 0, i32 5
  %67 = load ptr, ptr %66, align 8, !tbaa !23
  %68 = ptrtoint ptr %64 to i64
  %69 = ptrtoint ptr %67 to i64
  %70 = sub i64 %68, %69
  %71 = trunc i64 %70 to i32
  call void @setintV(ptr noundef %60, i32 noundef %71)
  call void @llvm.lifetime.end.p0(i64 8, ptr %4) #8
  call void @llvm.lifetime.end.p0(i64 8, ptr %3) #8
  ret i32 2
}