; Function Attrs: nounwind uwtable
define internal noundef i32 @lj_cf_buffer_method_ref(ptr noundef %0) #0 {
  %2 = getelementptr inbounds nuw i8, ptr %0, i64 32
  %3 = load ptr, ptr %2, align 8, !tbaa !4
  %4 = getelementptr inbounds nuw i8, ptr %0, i64 40
  %5 = load ptr, ptr %4, align 8, !tbaa !14
  %6 = icmp ult ptr %3, %5
  br i1 %6, label %7, label %16

7:                                                ; preds = %1
  %8 = load i64, ptr %3, align 8, !tbaa !15
  %.mask.i = and i64 %8, -140737488355328
  %9 = icmp eq i64 %.mask.i, -1829587348619264
  br i1 %9, label %10, label %16

10:                                               ; preds = %7
  %11 = and i64 %8, 140737488355327
  %12 = inttoptr i64 %11 to ptr
  %13 = getelementptr inbounds nuw i8, ptr %12, i64 10
  %14 = load i8, ptr %13, align 2, !tbaa !15
  %15 = icmp eq i8 %14, 3
  br i1 %15, label %buffer_tobuf.exit, label %16

16:                                               ; preds = %10, %7, %1
  tail call void @lj_err_argtype(ptr noundef nonnull %0, i32 noundef 1, ptr noundef nonnull @.str.2) #7
  unreachable

buffer_tobuf.exit:                                ; preds = %10
  %17 = getelementptr inbounds nuw i8, ptr %0, i64 16
  %18 = load i64, ptr %17, align 8, !tbaa !19
  %19 = inttoptr i64 %18 to ptr
  %20 = getelementptr inbounds nuw i8, ptr %19, i64 384
  %21 = load i64, ptr %20, align 8, !tbaa !36
  %.not = icmp eq i64 %21, 0
  br i1 %.not, label %22, label %31

22:                                               ; preds = %buffer_tobuf.exit
  %23 = getelementptr inbounds nuw i8, ptr %0, i64 56
  %24 = load i64, ptr %23, align 8, !tbaa !57
  %25 = ptrtoint ptr %5 to i64
  %26 = sub i64 %25, %24
  %27 = tail call i32 @luaopen_ffi(ptr noundef nonnull %0) #6
  %28 = load i64, ptr %23, align 8, !tbaa !57
  %29 = inttoptr i64 %28 to ptr
  %30 = getelementptr inbounds i8, ptr %29, i64 %26
  store ptr %30, ptr %4, align 8, !tbaa !14
  br label %31

31:                                               ; preds = %22, %buffer_tobuf.exit
  %32 = getelementptr inbounds nuw i8, ptr %12, i64 48
  %33 = tail call ptr @lj_mem_newgco(ptr noundef nonnull %0, i64 noundef 24) #6
  %34 = getelementptr inbounds nuw i8, ptr %33, i64 9
  store i8 10, ptr %34, align 1, !tbaa !58
  %35 = getelementptr inbounds nuw i8, ptr %33, i64 10
  store i16 20, ptr %35, align 2, !tbaa !61
  %36 = getelementptr inbounds nuw i8, ptr %12, i64 88
  %37 = load ptr, ptr %36, align 8, !tbaa !35
  %38 = getelementptr inbounds nuw i8, ptr %33, i64 16
  store ptr %37, ptr %38, align 8, !tbaa !62
  %39 = load ptr, ptr %4, align 8, !tbaa !14
  %40 = getelementptr inbounds nuw i8, ptr %39, i64 8
  store ptr %40, ptr %4, align 8, !tbaa !14
  %41 = ptrtoint ptr %33 to i64
  %42 = or i64 %41, -1548112371908608
  store i64 %42, ptr %39, align 8, !tbaa !15
  %43 = load ptr, ptr %4, align 8, !tbaa !14
  %44 = getelementptr inbounds nuw i8, ptr %43, i64 8
  store ptr %44, ptr %4, align 8, !tbaa !14
  %45 = load ptr, ptr %32, align 8, !tbaa !34
  %46 = load ptr, ptr %36, align 8, !tbaa !35
  %47 = ptrtoint ptr %45 to i64
  %48 = ptrtoint ptr %46 to i64
  %49 = sub i64 %47, %48
  %50 = trunc i64 %49 to i32
  %51 = sitofp i32 %50 to double
  store double %51, ptr %43, align 8, !tbaa !15
  ret i32 2
}